; Function Attrs: nounwind uwtable
define internal fastcc void @freetree(ptr noundef %0) unnamed_addr #0 {
  tail call void @check_stack_depth() #7
  %.not = icmp eq ptr %0, null
  br i1 %.not, label %10, label %2

2:                                                ; preds = %1
  %3 = load ptr, ptr %0, align 8
  %.not8 = icmp eq ptr %3, null
  br i1 %.not8, label %5, label %4

4:                                                ; preds = %2
  tail call fastcc void @freetree(ptr noundef nonnull %3)
  br label %5

5:                                                ; preds = %4, %2
  %6 = getelementptr inbounds nuw i8, ptr %0, i64 8
  %7 = load ptr, ptr %6, align 8
  %.not9 = icmp eq ptr %7, null
  br i1 %.not9, label %9, label %8

8:                                                ; preds = %5
  tail call fastcc void @freetree(ptr noundef nonnull %7)
  br label %9

9:                                                ; preds = %8, %5
  tail call void @pfree(ptr noundef nonnull %0) #7
  br label %10

10:                                               ; preds = %1, %9
  ret void
}